target datalayout = "e-m:e-p270:32:32-p271:32:32-p272:64:64-i64:64-i128:128-f80:128-n8:16:32:64-S128"
target triple = "x86_64-pc-linux-gnu"

; Function Attrs: inlinehint nounwind willreturn memory(none) uwtable
define internal i32 @av_toupper(i32 noundef %0) #1 {
  %2 = alloca i32, align 4
  store i32 %0, ptr %2, align 4, !tbaa !16
  %3 = load i32, ptr %2, align 4, !tbaa !16
  %4 = icmp sge i32 %3, 97
  br i1 %4, label %5, label %11

5:                                                ; preds = %1
  %6 = load i32, ptr %2, align 4, !tbaa !16
  %7 = icmp sle i32 %6, 122
  br i1 %7, label %8, label %11

8:                                                ; preds = %5
  %9 = load i32, ptr %2, align 4, !tbaa !16
  %10 = xor i32 %9, 32
  store i32 %10, ptr %2, align 4, !tbaa !16
  br label %11

11:                                               ; preds = %8, %5, %1
  %12 = load i32, ptr %2, align 4, !tbaa !16
  ret i32 %12
}

; Function Attrs: nounwind uwtable
define i32 @av_stristart(ptr noundef %0, ptr noundef %1, ptr noundef %2) #0 {
  %4 = alloca ptr, align 8
  %5 = alloca ptr, align 8
  %6 = alloca ptr, align 8
  store ptr %0, ptr %4, align 8, !tbaa !4
  store ptr %1, ptr %5, align 8, !tbaa !4
  store ptr %2, ptr %6, align 8, !tbaa !9
  br label %7

7:                                                ; preds = %24, %3
  %8 = load ptr, ptr %5, align 8, !tbaa !4
  %9 = load i8, ptr %8, align 1, !tbaa !12
  %10 = sext i8 %9 to i32
  %11 = icmp ne i32 %10, 0
  br i1 %11, label %12, label %22

12:                                               ; preds = %7
  %13 = load ptr, ptr %5, align 8, !tbaa !4
  %14 = load i8, ptr %13, align 1, !tbaa !12
  %15 = sext i8 %14 to i32
  %16 = call i32 @av_toupper(i32 noundef %15) #10
  %17 = load ptr, ptr %4, align 8, !tbaa !4
  %18 = load i8, ptr %17, align 1, !tbaa !12
  %19 = sext i8 %18 to i32
  %20 = call i32 @av_toupper(i32 noundef %19) #10
  %21 = icmp eq i32 %16, %20
  br label %22

22:                                               ; preds = %12, %7
  %23 = phi i1 [ false, %7 ], [ %21, %12 ]
  br i1 %23, label %24, label %29

24:                                               ; preds = %22
  %25 = load ptr, ptr %5, align 8, !tbaa !4
  %26 = getelementptr inbounds nuw i8, ptr %25, i32 1
  store ptr %26, ptr %5, align 8, !tbaa !4
  %27 = load ptr, ptr %4, align 8, !tbaa !4
  %28 = getelementptr inbounds nuw i8, ptr %27, i32 1
  store ptr %28, ptr %4, align 8, !tbaa !4
  br label %7, !llvm.loop !15

29:                                               ; preds = %22
  %30 = load ptr, ptr %5, align 8, !tbaa !4
  %31 = load i8, ptr %30, align 1, !tbaa !12
  %32 = icmp ne i8 %31, 0
  br i1 %32, label %39, label %33

33:                                               ; preds = %29
  %34 = load ptr, ptr %6, align 8, !tbaa !9
  %35 = icmp ne ptr %34, null
  br i1 %35, label %36, label %39

36:                                               ; preds = %33
  %37 = load ptr, ptr %4, align 8, !tbaa !4
  %38 = load ptr, ptr %6, align 8, !tbaa !9
  store ptr %37, ptr %38, align 8, !tbaa !4
  br label %39

39:                                               ; preds = %36, %33, %29
  %40 = load ptr, ptr %5, align 8, !tbaa !4
  %41 = load i8, ptr %40, align 1, !tbaa !12
  %42 = icmp ne i8 %41, 0
  %43 = xor i1 %42, true
  %44 = zext i1 %43 to i32
  ret i32 %44
}

; Function Attrs: nounwind uwtable
define ptr @av_stristr(ptr noundef %0, ptr noundef %1) #0 {
  %3 = alloca ptr, align 8
  %4 = alloca ptr, align 8
  %5 = alloca ptr, align 8
  store ptr %0, ptr %4, align 8, !tbaa !4
  store ptr %1, ptr %5, align 8, !tbaa !4
  %6 = load ptr, ptr %5, align 8, !tbaa !4
  %7 = load i8, ptr %6, align 1, !tbaa !12
  %8 = icmp ne i8 %7, 0
  br i1 %8, label %13, label %9

9:                                                ; preds = %2
  %10 = load ptr, ptr %4, align 8, !tbaa !4
  %11 = ptrtoint ptr %10 to i64
  %12 = inttoptr i64 %11 to ptr
  store ptr %12, ptr %3, align 8
  br label %30

13:                                               ; preds = %2
  br label %14

14:                                               ; preds = %24, %13
  %15 = load ptr, ptr %4, align 8, !tbaa !4
  %16 = load ptr, ptr %5, align 8, !tbaa !4
  %17 = call i32 @av_stristart(ptr noundef %15, ptr noundef %16, ptr noundef null)
  %18 = icmp ne i32 %17, 0
  br i1 %18, label %19, label %23

19:                                               ; preds = %14
  %20 = load ptr, ptr %4, align 8, !tbaa !4
  %21 = ptrtoint ptr %20 to i64
  %22 = inttoptr i64 %21 to ptr
  store ptr %22, ptr %3, align 8
  br label %30

23:                                               ; preds = %14
  br label %24

24:                                               ; preds = %23
  %25 = load ptr, ptr %4, align 8, !tbaa !4
  %26 = getelementptr inbounds nuw i8, ptr %25, i32 1
  store ptr %26, ptr %4, align 8, !tbaa !4
  %27 = load i8, ptr %25, align 1, !tbaa !12
  %28 = icmp ne i8 %27, 0
  br i1 %28, label %14, label %29, !llvm.loop !18

29:                                               ; preds = %24
  store ptr null, ptr %3, align 8
  br label %30

30:                                               ; preds = %29, %19, %9
  %31 = load ptr, ptr %3, align 8
  ret ptr %31
}