; Function Attrs: nofree norecurse nosync nounwind memory(argmem: read) uwtable
define ptr @av_stristr(ptr noundef readonly captures(ret: address, provenance) %0, ptr noundef readonly captures(none) %1) local_unnamed_addr #1 {
  %3 = load i8, ptr %1, align 1, !tbaa !4
  %.not = icmp eq i8 %3, 0
  br i1 %.not, label %av_stristart.exit, label %.preheader

.preheader:                                       ; preds = %2, %17
  %.07 = phi ptr [ %18, %17 ], [ %0, %2 ]
  br label %.lr.ph.i

.lr.ph.i:                                         ; preds = %.preheader, %13
  %4 = phi i8 [ %16, %13 ], [ %3, %.preheader ]
  %.024.i = phi ptr [ %15, %13 ], [ %.07, %.preheader ]
  %.01123.i = phi ptr [ %14, %13 ], [ %1, %.preheader ]
  %5 = sext i8 %4 to i32
  %6 = add nsw i32 %5, -97
  %or.cond.i.i = icmp ult i32 %6, 26
  %7 = and i32 %5, 95
  %spec.select.i.i = select i1 %or.cond.i.i, i32 %7, i32 %5
  %8 = load i8, ptr %.024.i, align 1, !tbaa !4
  %9 = sext i8 %8 to i32
  %10 = add nsw i32 %9, -97
  %or.cond.i15.i = icmp ult i32 %10, 26
  %11 = and i32 %9, 95
  %spec.select.i16.i = select i1 %or.cond.i15.i, i32 %11, i32 %9
  %12 = icmp eq i32 %spec.select.i.i, %spec.select.i16.i
  br i1 %12, label %13, label %17

13:                                               ; preds = %.lr.ph.i
  %14 = getelementptr inbounds nuw i8, ptr %.01123.i, i64 1
  %15 = getelementptr inbounds nuw i8, ptr %.024.i, i64 1
  %16 = load i8, ptr %14, align 1, !tbaa !4
  %.not.i = icmp eq i8 %16, 0
  br i1 %.not.i, label %av_stristart.exit, label %.lr.ph.i, !llvm.loop !12

17:                                               ; preds = %.lr.ph.i
  %18 = getelementptr inbounds nuw i8, ptr %.07, i64 1
  %19 = load i8, ptr %.07, align 1, !tbaa !4
  %.not9 = icmp eq i8 %19, 0
  br i1 %.not9, label %av_stristart.exit, label %.preheader, !llvm.loop !13

av_stristart.exit:                                ; preds = %17, %13, %2
  %.0 = phi ptr [ %0, %2 ], [ %.07, %13 ], [ null, %17 ]
  ret ptr %.0
}